; Function Attrs: nofree norecurse nosync nounwind memory(argmem: readwrite) uwtable
define internal void @sprite_v_double_twoscale_c(ptr noundef writeonly captures(none) %0, ptr noundef readonly captures(none) %1, ptr noundef readonly captures(none) %2, i32 noundef %3, ptr noundef readonly captures(none) %4, ptr noundef readonly captures(none) %5, i32 noundef %6, i32 noundef %7, i32 noundef %8) #1 {
  %.not.i8 = icmp eq i32 %8, 0
  br i1 %.not.i8, label %sprite_v_template.exit, label %.lr.ph

.lr.ph:                                           ; preds = %9, %.lr.ph
  %.0.i14 = phi ptr [ %36, %.lr.ph ], [ %0, %9 ]
  %.022.i13 = phi ptr [ %11, %.lr.ph ], [ %1, %9 ]
  %.024.i12 = phi i32 [ %10, %.lr.ph ], [ %8, %9 ]
  %.025.i11 = phi ptr [ %14, %.lr.ph ], [ %2, %9 ]
  %.027.i10 = phi ptr [ %21, %.lr.ph ], [ %4, %9 ]
  %.029.i9 = phi ptr [ %24, %.lr.ph ], [ %5, %9 ]
  %10 = add nsw i32 %.024.i12, -1
  %11 = getelementptr inbounds nuw i8, ptr %.022.i13, i64 1
  %12 = load i8, ptr %.022.i13, align 1, !tbaa !40
  %13 = zext i8 %12 to i32
  %14 = getelementptr inbounds nuw i8, ptr %.025.i11, i64 1
  %15 = load i8, ptr %.025.i11, align 1, !tbaa !40
  %16 = zext i8 %15 to i32
  %17 = sub nsw i32 %16, %13
  %18 = mul nsw i32 %17, %3
  %19 = ashr i32 %18, 16
  %20 = add nsw i32 %19, %13
  %21 = getelementptr inbounds nuw i8, ptr %.027.i10, i64 1
  %22 = load i8, ptr %.027.i10, align 1, !tbaa !40
  %23 = zext i8 %22 to i32
  %24 = getelementptr inbounds nuw i8, ptr %.029.i9, i64 1
  %25 = load i8, ptr %.029.i9, align 1, !tbaa !40
  %26 = zext i8 %25 to i32
  %27 = sub nsw i32 %26, %23
  %28 = mul nsw i32 %27, %6
  %29 = ashr i32 %28, 16
  %30 = sub nsw i32 %23, %20
  %31 = add nsw i32 %30, %29
  %32 = mul nsw i32 %31, %7
  %33 = lshr i32 %32, 16
  %34 = add nsw i32 %33, %20
  %35 = trunc i32 %34 to i8
  %36 = getelementptr inbounds nuw i8, ptr %.0.i14, i64 1
  store i8 %35, ptr %.0.i14, align 1, !tbaa !40
  %.not.i = icmp eq i32 %10, 0
  br i1 %.not.i, label %sprite_v_template.exit, label %.lr.ph, !llvm.loop !97

sprite_v_template.exit:                           ; preds = %.lr.ph, %9
  ret void
}